target datalayout = "e-m:e-p270:32:32-p271:32:32-p272:64:64-i64:64-i128:128-f80:128-n8:16:32:64-S128"
target triple = "x86_64-pc-linux-gnu"

@proto_register_fcip.ett = internal global [1 x ptr] [ptr @ett_fcip], align 8
@.str.52 = private unnamed_addr constant [5 x i8] c"FCIP\00", align 1
@.str.53 = private unnamed_addr constant [22 x i8] c"Fibre Channel over IP\00", align 1
@.str.54 = private unnamed_addr constant [5 x i8] c"fcip\00", align 1
@proto_fcip = internal global i32 0, align 4
@fcip_handle = internal global ptr null, align 8
@.str.55 = private unnamed_addr constant [10 x i8] c"desegment\00", align 1
@.str.56 = private unnamed_addr constant [56 x i8] c"Reassemble FCIP messages spanning multiple TCP segments\00", align 1
@.str.57 = private unnamed_addr constant [205 x i8] c"Whether the FCIP dissector should reassemble messages spanning multiple TCP segments. To use this option, you must also enable \22Allow subdissectors to reassemble TCP streams\22 in the TCP protocol settings.\00", align 1
@fcip_desegment = internal global i8 1, align 1
@.str.58 = private unnamed_addr constant [12 x i8] c"target_port\00", align 1
@.str.59 = private unnamed_addr constant [12 x i8] c"Target port\00", align 1
@.str.60 = private unnamed_addr constant [26 x i8] c"Port number used for FCIP\00", align 1
@fcip_port = internal global i32 3225, align 4

; Function Attrs: null_pointer_is_valid sspstrong uwtable
define hidden void @proto_register_fcip() #0 {
  %1 = alloca ptr, align 8
  call void @llvm.lifetime.start.p0(i64 8, ptr %1) #3
  %2 = call i32 @proto_register_protocol(ptr noundef @.str.52, ptr noundef @.str.53, ptr noundef @.str.54)
  store i32 %2, ptr @proto_fcip, align 4
  %3 = load i32, ptr @proto_fcip, align 4
  %4 = call ptr @register_dissector(ptr noundef @.str.54, ptr noundef @dissect_fcip_handle, i32 noundef %3)
  store ptr %4, ptr @fcip_handle, align 8
  %5 = load i32, ptr @proto_fcip, align 4
  call void @proto_register_field_array(i32 noundef %5, ptr noundef @proto_register_fcip.hf, i32 noundef 26)
  call void @proto_register_subtree_array(ptr noundef @proto_register_fcip.ett, i32 noundef 1)
  %6 = load i32, ptr @proto_fcip, align 4
  %7 = call ptr @prefs_register_protocol(i32 noundef %6, ptr noundef null)
  store ptr %7, ptr %1, align 8
  %8 = load ptr, ptr %1, align 8
  call void @prefs_register_bool_preference(ptr noundef %8, ptr noundef @.str.55, ptr noundef @.str.56, ptr noundef @.str.57, ptr noundef @fcip_desegment)
  %9 = load ptr, ptr %1, align 8
  call void @prefs_register_uint_preference(ptr noundef %9, ptr noundef @.str.58, ptr noundef @.str.59, ptr noundef @.str.60, i32 noundef 10, ptr noundef @fcip_port)
  call void @llvm.lifetime.end.p0(i64 8, ptr %1) #3
  ret void
}