; Function Attrs: null_pointer_is_valid sspstrong uwtable
define hidden void @proto_register_fcip() local_unnamed_addr #0 {
  %1 = tail call i32 @proto_register_protocol(ptr noundef nonnull @.str.52, ptr noundef nonnull @.str.53, ptr noundef nonnull @.str.54)
  store i32 %1, ptr @proto_fcip, align 4
  %2 = tail call ptr @register_dissector(ptr noundef nonnull @.str.54, ptr noundef nonnull @dissect_fcip_handle, i32 noundef %1)
  store ptr %2, ptr @fcip_handle, align 8
  %3 = load i32, ptr @proto_fcip, align 4
  tail call void @proto_register_field_array(i32 noundef %3, ptr noundef nonnull @proto_register_fcip.hf, i32 noundef 26)
  tail call void @proto_register_subtree_array(ptr noundef nonnull @proto_register_fcip.ett, i32 noundef 1)
  %4 = load i32, ptr @proto_fcip, align 4
  %5 = tail call ptr @prefs_register_protocol(i32 noundef %4, ptr noundef null)
  tail call void @prefs_register_bool_preference(ptr noundef %5, ptr noundef nonnull @.str.55, ptr noundef nonnull @.str.56, ptr noundef nonnull @.str.57, ptr noundef nonnull @fcip_desegment)
  tail call void @prefs_register_uint_preference(ptr noundef %5, ptr noundef nonnull @.str.58, ptr noundef nonnull @.str.59, ptr noundef nonnull @.str.60, i32 noundef 10, ptr noundef nonnull @fcip_port)
  ret void
}